target datalayout = "e-m:e-p270:32:32-p271:32:32-p272:64:64-i64:64-i128:128-f80:128-n8:16:32:64-S128"
target triple = "x86_64-unknown-linux-gnu"

%"struct.std::pair.14" = type { i64, ptr }

; Function Attrs: mustprogress nounwind uwtable
define hidden noundef zeroext i1 @_ZNK6hermes6parser11JSONFactory18LessHiddenClassKeyclERKSt4pairImPKPNS0_10JSONStringEESA_(ptr noundef nonnull align 1 dereferenceable(1) %this, ptr noundef nonnull align 8 dereferenceable(16) %a, ptr noundef nonnull align 8 dereferenceable(16) %b) #0 align 2 {
entry:
  %retval = alloca i1, align 1
  %this.addr = alloca ptr, align 8
  %a.addr = alloca ptr, align 8
  %b.addr = alloca ptr, align 8
  %i = alloca i64, align 8
  %e = alloca i64, align 8
  %s1 = alloca ptr, align 8
  %s2 = alloca ptr, align 8
  store ptr %this, ptr %this.addr, align 8
  store ptr %a, ptr %a.addr, align 8
  store ptr %b, ptr %b.addr, align 8
  %0 = load ptr, ptr %a.addr, align 8
  %first = getelementptr inbounds %"struct.std::pair.14", ptr %0, i32 0, i32 0
  %1 = load i64, ptr %first, align 8
  %2 = load ptr, ptr %b.addr, align 8
  %first2 = getelementptr inbounds %"struct.std::pair.14", ptr %2, i32 0, i32 0
  %3 = load i64, ptr %first2, align 8
  %cmp = icmp ult i64 %1, %3
  br i1 %cmp, label %if.then, label %if.end

if.then:                                          ; preds = %entry
  store i1 true, ptr %retval, align 1
  br label %return

if.end:                                           ; preds = %entry
  %4 = load ptr, ptr %a.addr, align 8
  %first3 = getelementptr inbounds %"struct.std::pair.14", ptr %4, i32 0, i32 0
  %5 = load i64, ptr %first3, align 8
  %6 = load ptr, ptr %b.addr, align 8
  %first4 = getelementptr inbounds %"struct.std::pair.14", ptr %6, i32 0, i32 0
  %7 = load i64, ptr %first4, align 8
  %cmp5 = icmp ugt i64 %5, %7
  br i1 %cmp5, label %if.then6, label %if.end7

if.then6:                                         ; preds = %if.end
  store i1 false, ptr %retval, align 1
  br label %return

if.end7:                                          ; preds = %if.end
  store i64 0, ptr %i, align 8
  %8 = load ptr, ptr %a.addr, align 8
  %first8 = getelementptr inbounds %"struct.std::pair.14", ptr %8, i32 0, i32 0
  %9 = load i64, ptr %first8, align 8
  store i64 %9, ptr %e, align 8
  br label %for.cond

for.cond:                                         ; preds = %for.inc, %if.end7
  %10 = load i64, ptr %i, align 8
  %11 = load i64, ptr %e, align 8
  %cmp9 = icmp ne i64 %10, %11
  br i1 %cmp9, label %for.body, label %for.end

for.body:                                         ; preds = %for.cond
  %12 = load ptr, ptr %a.addr, align 8
  %second = getelementptr inbounds %"struct.std::pair.14", ptr %12, i32 0, i32 1
  %13 = load ptr, ptr %second, align 8
  %14 = load i64, ptr %i, align 8
  %arrayidx = getelementptr inbounds ptr, ptr %13, i64 %14
  %15 = load ptr, ptr %arrayidx, align 8
  store ptr %15, ptr %s1, align 8
  %16 = load ptr, ptr %b.addr, align 8
  %second10 = getelementptr inbounds %"struct.std::pair.14", ptr %16, i32 0, i32 1
  %17 = load ptr, ptr %second10, align 8
  %18 = load i64, ptr %i, align 8
  %arrayidx11 = getelementptr inbounds ptr, ptr %17, i64 %18
  %19 = load ptr, ptr %arrayidx11, align 8
  store ptr %19, ptr %s2, align 8
  %20 = load ptr, ptr %s1, align 8
  %21 = load ptr, ptr %s2, align 8
  %cmp12 = icmp ult ptr %20, %21
  br i1 %cmp12, label %if.then13, label %if.end14

if.then13:                                        ; preds = %for.body
  store i1 true, ptr %retval, align 1
  br label %return

if.end14:                                         ; preds = %for.body
  %22 = load ptr, ptr %s1, align 8
  %23 = load ptr, ptr %s2, align 8
  %cmp15 = icmp ugt ptr %22, %23
  br i1 %cmp15, label %if.then16, label %if.end17

if.then16:                                        ; preds = %if.end14
  store i1 false, ptr %retval, align 1
  br label %return

if.end17:                                         ; preds = %if.end14
  br label %for.inc

for.inc:                                          ; preds = %if.end17
  %24 = load i64, ptr %i, align 8
  %inc = add i64 %24, 1
  store i64 %inc, ptr %i, align 8
  br label %for.cond, !llvm.loop !6

for.end:                                          ; preds = %for.cond
  store i1 false, ptr %retval, align 1
  br label %return

return:                                           ; preds = %for.end, %if.then16, %if.then13, %if.then6, %if.then
  %25 = load i1, ptr %retval, align 1
  ret i1 %25
}