; Function Attrs: mustprogress nofree norecurse nosync nounwind willreturn memory(read, inaccessiblemem: none) uwtable
define hidden noundef zeroext i1 @_ZNK6hermes6parser11JSONFactory18LessHiddenClassKeyclERKSt4pairImPKPNS0_10JSONStringEESA_(ptr nocapture noundef nonnull readnone align 1 dereferenceable(1) %this, ptr nocapture noundef nonnull readonly align 8 dereferenceable(16) %a, ptr nocapture noundef nonnull readonly align 8 dereferenceable(16) %b) local_unnamed_addr #6 align 2 {
entry:
  %0 = load i64, ptr %a, align 8
  %1 = load i64, ptr %b, align 8
  %cmp = icmp ult i64 %0, %1
  br i1 %cmp, label %return, label %if.end

if.end:                                           ; preds = %entry
  %2 = add i64 %0, -1
  %or.cond.not = icmp ult i64 %2, %1
  br i1 %or.cond.not, label %for.body.lr.ph, label %return

for.body.lr.ph:                                   ; preds = %if.end
  %second = getelementptr inbounds i8, ptr %a, i64 8
  %3 = load ptr, ptr %second, align 8
  %second10 = getelementptr inbounds i8, ptr %b, i64 8
  %4 = load ptr, ptr %second10, align 8
  br label %for.body

for.body:                                         ; preds = %if.end14, %for.body.lr.ph
  %i.015 = phi i64 [ 0, %for.body.lr.ph ], [ %inc, %if.end14 ]
  %arrayidx = getelementptr inbounds ptr, ptr %3, i64 %i.015
  %5 = load ptr, ptr %arrayidx, align 8
  %arrayidx11 = getelementptr inbounds ptr, ptr %4, i64 %i.015
  %6 = load ptr, ptr %arrayidx11, align 8
  %cmp12 = icmp ult ptr %5, %6
  br i1 %cmp12, label %return, label %if.end14

if.end14:                                         ; preds = %for.body
  %cmp15 = icmp ugt ptr %5, %6
  %inc = add nuw i64 %i.015, 1
  %cmp9.not = icmp eq i64 %inc, %0
  %or.cond18 = select i1 %cmp15, i1 true, i1 %cmp9.not
  br i1 %or.cond18, label %return, label %for.body, !llvm.loop !9

return:                                           ; preds = %for.body, %if.end14, %if.end, %entry
  %retval.0 = phi i1 [ true, %entry ], [ false, %if.end ], [ %cmp12, %if.end14 ], [ %cmp12, %for.body ]
  ret i1 %retval.0
}